(lp0
V\u0414\u043e\u0431\u044b\u0442\u043e \u043f\u043e\u0432\u0435\u0440\u0445\u043d\u043e\u0441\u0442\u043d\u044b\u0445 \u0432\u043e\u0434
p1
aV\u0414\u043e\u0431\u044b\u0442\u043e \u043f\u043e\u0434\u0437\u0435\u043c\u043d\u044b\u0445 \u0438 \u043f\u043e\u0432\u0435\u0440\u0445\u043d\u043e\u0441\u0442\u043d\u044b\u0445 \u0432\u043e\u0434 \u0432\u0441\u0435\u0433\u043e 
p2
a.